Certificate:
    Data:
        Version: 3 (0x2)
        Serial Number:
            3e:e6:73:8b:b2:82:16:71:7a:e4:e0:a8:50:80:4c:da
    Signature Algorithm: sha256WithRSAEncryption
        Issuer: CN=rasvpn
        Validity
            Not Before: Dec  9 13:39:40 2020 GMT
            Not After : Mar 14 13:39:40 2023 GMT
        Subject: CN=client
        Subject Public Key Info:
            Public Key Algorithm: rsaEncryption
                Public-Key: (2048 bit)
                Modulus:
                    00:d7:ab:ed:e2:0b:37:56:0b:9a:03:be:25:7f:d3:
                    38:cf:8e:38:6b:07:42:93:c1:27:23:84:f4:a7:3d:
                    f2:1a:81:51:de:55:b9:1c:81:2b:36:95:db:bb:ec:
                    b0:2c:e0:57:8c:cf:02:44:de:36:2d:c2:e1:ed:c6:
                    4c:e6:ea:35:b8:4e:63:47:39:cf:bf:64:81:30:d6:
                    1d:ab:cf:32:0c:75:92:ea:df:74:2b:6e:79:a7:8b:
                    bc:d8:dd:c4:09:04:76:a0:42:97:f6:b8:a0:78:e8:
                    96:c1:c4:d9:e6:46:8c:97:45:3f:3d:69:d2:55:6a:
                    6d:dd:4b:5b:fa:a6:af:b8:72:ae:6d:db:98:65:e6:
                    e5:b8:d5:4d:c3:27:b7:e8:94:97:82:33:43:b8:b3:
                    c3:d4:f5:94:8c:8a:d0:fe:07:46:64:d6:11:80:12:
                    eb:8d:5e:e5:ef:1d:ac:1c:6d:34:6a:fe:a7:21:71:
                    f3:20:10:f1:98:dd:c9:f5:44:c0:16:ba:4c:11:f7:
                    9c:c1:da:a7:7b:97:95:d1:2c:49:0d:f7:b1:cd:5c:
                    b5:62:03:24:2e:dc:23:5d:0a:59:2e:8c:a2:ae:e6:
                    3a:9f:df:20:6b:dc:bc:ea:da:f6:28:fa:10:d5:f6:
                    db:bb:b4:6c:24:f1:d4:d8:11:97:b7:74:2f:3f:cb:
                    50:37
                Exponent: 65537 (0x10001)
        X509v3 extensions:
            X509v3 Basic Constraints: 
                CA:FALSE
            X509v3 Subject Key Identifier: 
                69:39:F4:F4:6E:94:F2:C7:39:5C:63:0E:A6:7A:9E:2F:D6:56:E6:6F
            X509v3 Authority Key Identifier: 
                keyid:5A:42:C8:A2:7C:CB:D7:9F:38:00:9C:0B:4A:ED:6A:A7:87:E2:E7:0F
                DirName:/CN=rasvpn
                serial:E8:84:79:69:09:D6:3B:1F

            X509v3 Extended Key Usage: 
                TLS Web Client Authentication
            X509v3 Key Usage: 
                Digital Signature
    Signature Algorithm: sha256WithRSAEncryption
         6a:7e:16:a2:87:34:bc:19:d7:d1:d0:6d:8b:df:66:f2:57:ec:
         60:0f:63:2e:0a:7e:75:56:79:de:d1:c3:ab:e5:6c:78:62:bd:
         24:6b:2d:bf:8d:39:a9:8d:b3:8f:55:40:6c:40:5b:d8:ed:e7:
         c1:fc:a5:8d:41:87:a9:b5:45:e7:44:b8:20:32:9f:64:27:7e:
         f4:24:1b:bd:cf:be:09:b0:22:e5:c6:08:c7:ba:18:b4:f4:dc:
         66:a5:c4:de:7c:35:05:a1:e0:cb:af:00:01:34:0c:c3:73:2d:
         49:71:44:f8:9d:0a:50:fe:af:e0:70:00:56:76:49:de:0d:1d:
         4e:79:08:2d:5e:72:18:53:9c:cc:23:57:02:b9:ea:57:c0:f3:
         b6:0d:3a:51:dc:f7:7a:6a:ba:f8:9a:c3:83:05:53:8c:66:0d:
         0d:bf:c6:61:84:cb:94:59:1b:03:fd:ed:2a:16:f7:3a:20:da:
         73:f4:51:f1:64:78:52:f6:16:4e:20:a1:db:37:42:e6:a3:50:
         1e:60:d1:68:42:8c:54:be:6b:0b:31:54:02:f6:c8:ab:9d:e4:
         7c:01:19:04:b9:6e:52:a6:63:f4:5d:44:dd:ff:bd:a5:2a:c4:
         da:72:72:95:4f:f2:c9:4b:a0:5b:61:9a:67:d9:fc:92:c1:4e:
         21:fb:43:fb
-----BEGIN CERTIFICATE-----
MIIDPzCCAiegAwIBAgIQPuZzi7KCFnF65OCoUIBM2jANBgkqhkiG9w0BAQsFADAR
MQ8wDQYDVQQDDAZyYXN2cG4wHhcNMjAxMjA5MTMzOTQwWhcNMjMwMzE0MTMzOTQw
WjARMQ8wDQYDVQQDDAZjbGllbnQwggEiMA0GCSqGSIb3DQEBAQUAA4IBDwAwggEK
AoIBAQDXq+3iCzdWC5oDviV/0zjPjjhrB0KTwScjhPSnPfIagVHeVbkcgSs2ldu7
7LAs4FeMzwJE3jYtwuHtxkzm6jW4TmNHOc+/ZIEw1h2rzzIMdZLq33Qrbnmni7zY
3cQJBHagQpf2uKB46JbBxNnmRoyXRT89adJVam3dS1v6pq+4cq5t25hl5uW41U3D
J7folJeCM0O4s8PU9ZSMitD+B0Zk1hGAEuuNXuXvHawcbTRq/qchcfMgEPGY3cn1
RMAWukwR95zB2qd7l5XRLEkN97HNXLViAyQu3CNdClkujKKu5jqf3yBr3Lzq2vYo
+hDV9tu7tGwk8dTYEZe3dC8/y1A3AgMBAAGjgZIwgY8wCQYDVR0TBAIwADAdBgNV
HQ4EFgQUaTn09G6U8sc5XGMOpnqeL9ZW5m8wQQYDVR0jBDowOIAUWkLIonzL1584
AJwLSu1qp4fi5w+hFaQTMBExDzANBgNVBAMMBnJhc3ZwboIJAOiEeWkJ1jsfMBMG
A1UdJQQMMAoGCCsGAQUFBwMCMAsGA1UdDwQEAwIHgDANBgkqhkiG9w0BAQsFAAOC
AQEAan4Wooc0vBnX0dBti99m8lfsYA9jLgp+dVZ53tHDq+VseGK9JGstv405qY2z
j1VAbEBb2O3nwfyljUGHqbVF50S4IDKfZCd+9CQbvc++CbAi5cYIx7oYtPTcZqXE
3nw1BaHgy68AATQMw3MtSXFE+J0KUP6v4HAAVnZJ3g0dTnkILV5yGFOczCNXArnq
V8Dztg06Udz3emq6+JrDgwVTjGYNDb/GYYTLlFkbA/3tKhb3OiDac/RR8WR4UvYW
TiCh2zdC5qNQHmDRaEKMVL5rCzFUAvbIq53kfAEZBLluUqZj9F1E3f+9pSrE2nJy
lU/yyUugW2GaZ9n8ksFOIftD+w==
-----END CERTIFICATE-----
